target datalayout = "e-m:e-p270:32:32-p271:32:32-p272:64:64-i64:64-i128:128-f80:128-n8:16:32:64-S128"
target triple = "x86_64-pc-linux-gnu"

%struct.CCaptionSubContext = type { ptr, ptr, i32, i32, i32, [2 x %struct.Screen], i32, i8, i8, i8, i8, i8, i8, [2 x %struct.AVBPrint], i32, i32, i32, i32, [2 x i64], i32, i64, [2 x i8], i32 }
%struct.Screen = type { [16 x [33 x i8]], [16 x [33 x i8]], [16 x [33 x i8]], [16 x [33 x i8]], [16 x [33 x i8]], i16 }
%struct.AVBPrint = type { ptr, i32, i32, i32, [1 x i8], [1000 x i8] }

; Function Attrs: nounwind uwtable
define internal ptr @get_writing_screen(ptr noundef %0) #1 {
  %2 = alloca ptr, align 8
  %3 = alloca ptr, align 8
  store ptr %0, ptr %3, align 8, !tbaa !29
  %4 = load ptr, ptr %3, align 8, !tbaa !29
  %5 = getelementptr inbounds nuw %struct.CCaptionSubContext, ptr %4, i32 0, i32 17
  %6 = load i32, ptr %5, align 4, !tbaa !33
  switch i32 %6, label %28 [
    i32 0, label %7
    i32 1, label %19
    i32 2, label %19
    i32 3, label %19
  ]

7:                                                ; preds = %1
  %8 = load ptr, ptr %3, align 8, !tbaa !29
  %9 = getelementptr inbounds nuw %struct.CCaptionSubContext, ptr %8, i32 0, i32 5
  %10 = getelementptr inbounds [2 x %struct.Screen], ptr %9, i64 0, i64 0
  %11 = load ptr, ptr %3, align 8, !tbaa !29
  %12 = getelementptr inbounds nuw %struct.CCaptionSubContext, ptr %11, i32 0, i32 6
  %13 = load i32, ptr %12, align 8, !tbaa !76
  %14 = icmp ne i32 %13, 0
  %15 = xor i1 %14, true
  %16 = zext i1 %15 to i32
  %17 = sext i32 %16 to i64
  %18 = getelementptr inbounds %struct.Screen, ptr %10, i64 %17
  store ptr %18, ptr %2, align 8
  br label %29

19:                                               ; preds = %1, %1, %1
  %20 = load ptr, ptr %3, align 8, !tbaa !29
  %21 = getelementptr inbounds nuw %struct.CCaptionSubContext, ptr %20, i32 0, i32 5
  %22 = getelementptr inbounds [2 x %struct.Screen], ptr %21, i64 0, i64 0
  %23 = load ptr, ptr %3, align 8, !tbaa !29
  %24 = getelementptr inbounds nuw %struct.CCaptionSubContext, ptr %23, i32 0, i32 6
  %25 = load i32, ptr %24, align 8, !tbaa !76
  %26 = sext i32 %25 to i64
  %27 = getelementptr inbounds %struct.Screen, ptr %22, i64 %26
  store ptr %27, ptr %2, align 8
  br label %29

28:                                               ; preds = %1
  store ptr null, ptr %2, align 8
  br label %29

29:                                               ; preds = %28, %19, %7
  %30 = load ptr, ptr %2, align 8
  ret ptr %30
}

; Function Attrs: nounwind uwtable
define internal void @roll_up(ptr noundef %0) #1 {
  %2 = alloca ptr, align 8
  %3 = alloca ptr, align 8
  %4 = alloca i32, align 4
  %5 = alloca i32, align 4
  %6 = alloca i32, align 4
  %7 = alloca i32, align 4
  store ptr %0, ptr %2, align 8, !tbaa !29
  call void @llvm.lifetime.start.p0(i64 8, ptr %3) #8
  call void @llvm.lifetime.start.p0(i64 4, ptr %4) #8
  call void @llvm.lifetime.start.p0(i64 4, ptr %5) #8
  %8 = load ptr, ptr %2, align 8, !tbaa !29
  %9 = getelementptr inbounds nuw %struct.CCaptionSubContext, ptr %8, i32 0, i32 17
  %10 = load i32, ptr %9, align 4, !tbaa !33
  %11 = icmp eq i32 %10, 3
  br i1 %11, label %12, label %13

12:                                               ; preds = %1
  store i32 1, ptr %6, align 4
  br label %193

13:                                               ; preds = %1
  %14 = load ptr, ptr %2, align 8, !tbaa !29
  %15 = call ptr @get_writing_screen(ptr noundef %14)
  store ptr %15, ptr %3, align 8, !tbaa !78
  %16 = load ptr, ptr %2, align 8, !tbaa !29
  %17 = getelementptr inbounds nuw %struct.CCaptionSubContext, ptr %16, i32 0, i32 7
  %18 = load i8, ptr %17, align 4, !tbaa !36
  %19 = zext i8 %18 to i32
  %20 = add nsw i32 %19, 1
  %21 = load ptr, ptr %2, align 8, !tbaa !29
  %22 = getelementptr inbounds nuw %struct.CCaptionSubContext, ptr %21, i32 0, i32 16
  %23 = load i32, ptr %22, align 8, !tbaa !35
  %24 = icmp sgt i32 %20, %23
  br i1 %24, label %25, label %29

25:                                               ; preds = %13
  %26 = load ptr, ptr %2, align 8, !tbaa !29
  %27 = getelementptr inbounds nuw %struct.CCaptionSubContext, ptr %26, i32 0, i32 16
  %28 = load i32, ptr %27, align 8, !tbaa !35
  br label %35

29:                                               ; preds = %13
  %30 = load ptr, ptr %2, align 8, !tbaa !29
  %31 = getelementptr inbounds nuw %struct.CCaptionSubContext, ptr %30, i32 0, i32 7
  %32 = load i8, ptr %31, align 4, !tbaa !36
  %33 = zext i8 %32 to i32
  %34 = add nsw i32 %33, 1
  br label %35

35:                                               ; preds = %29, %25
  %36 = phi i32 [ %28, %25 ], [ %34, %29 ]
  store i32 %36, ptr %5, align 4, !tbaa !48
  store i32 0, ptr %4, align 4, !tbaa !48
  br label %37

37:                                               ; preds = %67, %35
  %38 = load i32, ptr %4, align 4, !tbaa !48
  %39 = icmp slt i32 %38, 15
  br i1 %39, label %40, label %70

40:                                               ; preds = %37
  %41 = load i32, ptr %4, align 4, !tbaa !48
  %42 = load ptr, ptr %2, align 8, !tbaa !29
  %43 = getelementptr inbounds nuw %struct.CCaptionSubContext, ptr %42, i32 0, i32 7
  %44 = load i8, ptr %43, align 4, !tbaa !36
  %45 = zext i8 %44 to i32
  %46 = load i32, ptr %5, align 4, !tbaa !48
  %47 = sub nsw i32 %45, %46
  %48 = icmp sgt i32 %41, %47
  br i1 %48, label %49, label %57

49:                                               ; preds = %40
  %50 = load i32, ptr %4, align 4, !tbaa !48
  %51 = load ptr, ptr %2, align 8, !tbaa !29
  %52 = getelementptr inbounds nuw %struct.CCaptionSubContext, ptr %51, i32 0, i32 7
  %53 = load i8, ptr %52, align 4, !tbaa !36
  %54 = zext i8 %53 to i32
  %55 = icmp sle i32 %50, %54
  br i1 %55, label %56, label %57

56:                                               ; preds = %49
  br label %67

57:                                               ; preds = %49, %40
  %58 = load i32, ptr %4, align 4, !tbaa !48
  %59 = shl i32 1, %58
  %60 = xor i32 %59, -1
  %61 = load ptr, ptr %3, align 8, !tbaa !78
  %62 = getelementptr inbounds nuw %struct.Screen, ptr %61, i32 0, i32 5
  %63 = load i16, ptr %62, align 2, !tbaa !70
  %64 = sext i16 %63 to i32
  %65 = and i32 %64, %60
  %66 = trunc i32 %65 to i16
  store i16 %66, ptr %62, align 2, !tbaa !70
  br label %67

67:                                               ; preds = %57, %56
  %68 = load i32, ptr %4, align 4, !tbaa !48
  %69 = add nsw i32 %68, 1
  store i32 %69, ptr %4, align 4, !tbaa !48
  br label %37, !llvm.loop !87

70:                                               ; preds = %37
  store i32 0, ptr %4, align 4, !tbaa !48
  br label %71

71:                                               ; preds = %177, %70
  %72 = load i32, ptr %4, align 4, !tbaa !48
  %73 = load i32, ptr %5, align 4, !tbaa !48
  %74 = icmp slt i32 %72, %73
  br i1 %74, label %75, label %81

75:                                               ; preds = %71
  %76 = load ptr, ptr %3, align 8, !tbaa !78
  %77 = getelementptr inbounds nuw %struct.Screen, ptr %76, i32 0, i32 5
  %78 = load i16, ptr %77, align 2, !tbaa !70
  %79 = sext i16 %78 to i32
  %80 = icmp ne i32 %79, 0
  br label %81

81:                                               ; preds = %75, %71
  %82 = phi i1 [ false, %71 ], [ %80, %75 ]
  br i1 %82, label %83, label %180

83:                                               ; preds = %81
  call void @llvm.lifetime.start.p0(i64 4, ptr %7) #8
  %84 = load ptr, ptr %2, align 8, !tbaa !29
  %85 = getelementptr inbounds nuw %struct.CCaptionSubContext, ptr %84, i32 0, i32 7
  %86 = load i8, ptr %85, align 4, !tbaa !36
  %87 = zext i8 %86 to i32
  %88 = load i32, ptr %5, align 4, !tbaa !48
  %89 = sub nsw i32 %87, %88
  %90 = load i32, ptr %4, align 4, !tbaa !48
  %91 = add nsw i32 %89, %90
  %92 = add nsw i32 %91, 1
  store i32 %92, ptr %7, align 4, !tbaa !48
  %93 = load ptr, ptr %3, align 8, !tbaa !78
  %94 = getelementptr inbounds nuw %struct.Screen, ptr %93, i32 0, i32 0
  %95 = load i32, ptr %7, align 4, !tbaa !48
  %96 = sext i32 %95 to i64
  %97 = getelementptr inbounds [16 x [33 x i8]], ptr %94, i64 0, i64 %96
  %98 = getelementptr inbounds [33 x i8], ptr %97, i64 0, i64 0
  %99 = load ptr, ptr %3, align 8, !tbaa !78
  %100 = getelementptr inbounds nuw %struct.Screen, ptr %99, i32 0, i32 0
  %101 = load i32, ptr %7, align 4, !tbaa !48
  %102 = add nsw i32 %101, 1
  %103 = sext i32 %102 to i64
  %104 = getelementptr inbounds [16 x [33 x i8]], ptr %100, i64 0, i64 %103
  %105 = getelementptr inbounds [33 x i8], ptr %104, i64 0, i64 0
  call void @llvm.memcpy.p0.p0.i64(ptr align 1 %98, ptr align 1 %105, i64 32, i1 false)
  %106 = load ptr, ptr %3, align 8, !tbaa !78
  %107 = getelementptr inbounds nuw %struct.Screen, ptr %106, i32 0, i32 2
  %108 = load i32, ptr %7, align 4, !tbaa !48
  %109 = sext i32 %108 to i64
  %110 = getelementptr inbounds [16 x [33 x i8]], ptr %107, i64 0, i64 %109
  %111 = getelementptr inbounds [33 x i8], ptr %110, i64 0, i64 0
  %112 = load ptr, ptr %3, align 8, !tbaa !78
  %113 = getelementptr inbounds nuw %struct.Screen, ptr %112, i32 0, i32 2
  %114 = load i32, ptr %7, align 4, !tbaa !48
  %115 = add nsw i32 %114, 1
  %116 = sext i32 %115 to i64
  %117 = getelementptr inbounds [16 x [33 x i8]], ptr %113, i64 0, i64 %116
  %118 = getelementptr inbounds [33 x i8], ptr %117, i64 0, i64 0
  call void @llvm.memcpy.p0.p0.i64(ptr align 1 %111, ptr align 1 %118, i64 32, i1 false)
  %119 = load ptr, ptr %3, align 8, !tbaa !78
  %120 = getelementptr inbounds nuw %struct.Screen, ptr %119, i32 0, i32 3
  %121 = load i32, ptr %7, align 4, !tbaa !48
  %122 = sext i32 %121 to i64
  %123 = getelementptr inbounds [16 x [33 x i8]], ptr %120, i64 0, i64 %122
  %124 = getelementptr inbounds [33 x i8], ptr %123, i64 0, i64 0
  %125 = load ptr, ptr %3, align 8, !tbaa !78
  %126 = getelementptr inbounds nuw %struct.Screen, ptr %125, i32 0, i32 3
  %127 = load i32, ptr %7, align 4, !tbaa !48
  %128 = add nsw i32 %127, 1
  %129 = sext i32 %128 to i64
  %130 = getelementptr inbounds [16 x [33 x i8]], ptr %126, i64 0, i64 %129
  %131 = getelementptr inbounds [33 x i8], ptr %130, i64 0, i64 0
  call void @llvm.memcpy.p0.p0.i64(ptr align 1 %124, ptr align 1 %131, i64 32, i1 false)
  %132 = load ptr, ptr %3, align 8, !tbaa !78
  %133 = getelementptr inbounds nuw %struct.Screen, ptr %132, i32 0, i32 4
  %134 = load i32, ptr %7, align 4, !tbaa !48
  %135 = sext i32 %134 to i64
  %136 = getelementptr inbounds [16 x [33 x i8]], ptr %133, i64 0, i64 %135
  %137 = getelementptr inbounds [33 x i8], ptr %136, i64 0, i64 0
  %138 = load ptr, ptr %3, align 8, !tbaa !78
  %139 = getelementptr inbounds nuw %struct.Screen, ptr %138, i32 0, i32 4
  %140 = load i32, ptr %7, align 4, !tbaa !48
  %141 = add nsw i32 %140, 1
  %142 = sext i32 %141 to i64
  %143 = getelementptr inbounds [16 x [33 x i8]], ptr %139, i64 0, i64 %142
  %144 = getelementptr inbounds [33 x i8], ptr %143, i64 0, i64 0
  call void @llvm.memcpy.p0.p0.i64(ptr align 1 %137, ptr align 1 %144, i64 32, i1 false)
  %145 = load ptr, ptr %3, align 8, !tbaa !78
  %146 = getelementptr inbounds nuw %struct.Screen, ptr %145, i32 0, i32 1
  %147 = load i32, ptr %7, align 4, !tbaa !48
  %148 = sext i32 %147 to i64
  %149 = getelementptr inbounds [16 x [33 x i8]], ptr %146, i64 0, i64 %148
  %150 = getelementptr inbounds [33 x i8], ptr %149, i64 0, i64 0
  %151 = load ptr, ptr %3, align 8, !tbaa !78
  %152 = getelementptr inbounds nuw %struct.Screen, ptr %151, i32 0, i32 1
  %153 = load i32, ptr %7, align 4, !tbaa !48
  %154 = add nsw i32 %153, 1
  %155 = sext i32 %154 to i64
  %156 = getelementptr inbounds [16 x [33 x i8]], ptr %152, i64 0, i64 %155
  %157 = getelementptr inbounds [33 x i8], ptr %156, i64 0, i64 0
  call void @llvm.memcpy.p0.p0.i64(ptr align 1 %150, ptr align 1 %157, i64 32, i1 false)
  %158 = load ptr, ptr %3, align 8, !tbaa !78
  %159 = getelementptr inbounds nuw %struct.Screen, ptr %158, i32 0, i32 5
  %160 = load i16, ptr %159, align 2, !tbaa !70
  %161 = sext i16 %160 to i32
  %162 = load i32, ptr %7, align 4, !tbaa !48
  %163 = add nsw i32 %162, 1
  %164 = shl i32 1, %163
  %165 = and i32 %161, %164
  %166 = icmp ne i32 %165, 0
  br i1 %166, label %167, label %176

167:                                              ; preds = %83
  %168 = load i32, ptr %7, align 4, !tbaa !48
  %169 = shl i32 1, %168
  %170 = load ptr, ptr %3, align 8, !tbaa !78
  %171 = getelementptr inbounds nuw %struct.Screen, ptr %170, i32 0, i32 5
  %172 = load i16, ptr %171, align 2, !tbaa !70
  %173 = sext i16 %172 to i32
  %174 = or i32 %173, %169
  %175 = trunc i32 %174 to i16
  store i16 %175, ptr %171, align 2, !tbaa !70
  br label %176

176:                                              ; preds = %167, %83
  call void @llvm.lifetime.end.p0(i64 4, ptr %7) #8
  br label %177

177:                                              ; preds = %176
  %178 = load i32, ptr %4, align 4, !tbaa !48
  %179 = add nsw i32 %178, 1
  store i32 %179, ptr %4, align 4, !tbaa !48
  br label %71, !llvm.loop !88

180:                                              ; preds = %81
  %181 = load ptr, ptr %2, align 8, !tbaa !29
  %182 = getelementptr inbounds nuw %struct.CCaptionSubContext, ptr %181, i32 0, i32 7
  %183 = load i8, ptr %182, align 4, !tbaa !36
  %184 = zext i8 %183 to i32
  %185 = shl i32 1, %184
  %186 = xor i32 %185, -1
  %187 = load ptr, ptr %3, align 8, !tbaa !78
  %188 = getelementptr inbounds nuw %struct.Screen, ptr %187, i32 0, i32 5
  %189 = load i16, ptr %188, align 2, !tbaa !70
  %190 = sext i16 %189 to i32
  %191 = and i32 %190, %186
  %192 = trunc i32 %191 to i16
  store i16 %192, ptr %188, align 2, !tbaa !70
  store i32 0, ptr %6, align 4
  br label %193

193:                                              ; preds = %180, %12
  call void @llvm.lifetime.end.p0(i64 4, ptr %5) #8
  call void @llvm.lifetime.end.p0(i64 4, ptr %4) #8
  call void @llvm.lifetime.end.p0(i64 8, ptr %3) #8
  %194 = load i32, ptr %6, align 4
  switch i32 %194, label %196 [
    i32 0, label %195
    i32 1, label %195
  ]

195:                                              ; preds = %193, %193
  ret void

196:                                              ; preds = %193
  unreachable
}