; Function Attrs: nofree norecurse nosync nounwind memory(readwrite, inaccessiblemem: none) uwtable
define internal fastcc void @roll_up(ptr noundef captures(none) %0) unnamed_addr #5 {
  %2 = getelementptr inbounds nuw i8, ptr %0, i64 7388
  %3 = load i32, ptr %2, align 4, !tbaa !29
  switch i32 %3, label %get_writing_screen.exit [
    i32 3, label %77
    i32 0, label %4
    i32 1, label %10
    i32 2, label %10
  ]

4:                                                ; preds = %1
  %5 = getelementptr inbounds nuw i8, ptr %0, i64 28
  %6 = getelementptr inbounds nuw i8, ptr %0, i64 5312
  %7 = load i32, ptr %6, align 8, !tbaa !44
  %.not.i = icmp eq i32 %7, 0
  %8 = zext i1 %.not.i to i64
  %9 = getelementptr inbounds nuw %struct.Screen, ptr %5, i64 %8
  br label %get_writing_screen.exit

10:                                               ; preds = %1, %1
  %11 = getelementptr inbounds nuw i8, ptr %0, i64 28
  %12 = getelementptr inbounds nuw i8, ptr %0, i64 5312
  %13 = load i32, ptr %12, align 8, !tbaa !44
  %14 = sext i32 %13 to i64
  %15 = getelementptr inbounds %struct.Screen, ptr %11, i64 %14
  br label %get_writing_screen.exit

get_writing_screen.exit:                          ; preds = %1, %4, %10
  %.0.i = phi ptr [ %15, %10 ], [ %9, %4 ], [ null, %1 ]
  %16 = getelementptr inbounds nuw i8, ptr %0, i64 5316
  %17 = load i8, ptr %16, align 4, !tbaa !32
  %18 = zext i8 %17 to i32
  %19 = getelementptr inbounds nuw i8, ptr %0, i64 7384
  %20 = load i32, ptr %19, align 8, !tbaa !31
  %.not = icmp sgt i32 %20, %18
  %21 = add nuw nsw i32 %18, 1
  %22 = select i1 %.not, i32 %21, i32 %20
  %23 = sub nsw i32 %18, %22
  %24 = getelementptr inbounds nuw i8, ptr %.0.i, i64 2640
  br label %30

.preheader:                                       ; preds = %38
  %25 = icmp sgt i32 %22, 0
  %.pre58 = load i16, ptr %24, align 2, !tbaa !51
  br i1 %25, label %.lr.ph, label %.critedge

.lr.ph:                                           ; preds = %.preheader
  %26 = getelementptr inbounds nuw i8, ptr %.0.i, i64 1056
  %27 = getelementptr inbounds nuw i8, ptr %.0.i, i64 1584
  %28 = getelementptr inbounds nuw i8, ptr %.0.i, i64 2112
  %29 = getelementptr inbounds nuw i8, ptr %.0.i, i64 528
  br label %40

30:                                               ; preds = %get_writing_screen.exit, %38
  %.053 = phi i32 [ 0, %get_writing_screen.exit ], [ %39, %38 ]
  %31 = icmp sle i32 %.053, %23
  %.not52 = icmp samesign ugt i32 %.053, %18
  %or.cond = select i1 %31, i1 true, i1 %.not52
  br i1 %or.cond, label %32, label %38

32:                                               ; preds = %30
  %33 = shl nuw nsw i32 1, %.053
  %34 = load i16, ptr %24, align 2, !tbaa !51
  %35 = trunc nuw nsw i32 %33 to i16
  %36 = xor i16 %35, -1
  %37 = and i16 %34, %36
  store i16 %37, ptr %24, align 2, !tbaa !51
  br label %38

38:                                               ; preds = %30, %32
  %39 = add nuw nsw i32 %.053, 1
  %exitcond.not = icmp eq i32 %39, 15
  br i1 %exitcond.not, label %.preheader, label %30, !llvm.loop !74

40:                                               ; preds = %.lr.ph, %68
  %41 = phi i16 [ %.pre58, %.lr.ph ], [ %69, %68 ]
  %.154 = phi i32 [ 0, %.lr.ph ], [ %70, %68 ]
  %.not50 = icmp eq i16 %41, 0
  %.pre57.pre59 = load i8, ptr %16, align 4, !tbaa !32
  br i1 %.not50, label %.critedge.loopexit, label %42

42:                                               ; preds = %40
  %43 = zext i8 %.pre57.pre59 to i32
  %44 = sub nsw i32 %43, %22
  %45 = add nsw i32 %44, %.154
  %46 = add nsw i32 %45, 1
  %47 = sext i32 %46 to i64
  %48 = getelementptr inbounds [16 x [33 x i8]], ptr %.0.i, i64 0, i64 %47
  %49 = add nsw i32 %45, 2
  %50 = sext i32 %49 to i64
  %51 = getelementptr inbounds [16 x [33 x i8]], ptr %.0.i, i64 0, i64 %50
  tail call void @llvm.memcpy.p0.p0.i64(ptr noundef nonnull align 1 dereferenceable(32) %48, ptr noundef nonnull align 1 dereferenceable(32) %51, i64 32, i1 false)
  %52 = getelementptr inbounds [16 x [33 x i8]], ptr %26, i64 0, i64 %47
  %53 = getelementptr inbounds [16 x [33 x i8]], ptr %26, i64 0, i64 %50
  tail call void @llvm.memcpy.p0.p0.i64(ptr noundef nonnull align 1 dereferenceable(32) %52, ptr noundef nonnull align 1 dereferenceable(32) %53, i64 32, i1 false)
  %54 = getelementptr inbounds [16 x [33 x i8]], ptr %27, i64 0, i64 %47
  %55 = getelementptr inbounds [16 x [33 x i8]], ptr %27, i64 0, i64 %50
  tail call void @llvm.memcpy.p0.p0.i64(ptr noundef nonnull align 1 dereferenceable(32) %54, ptr noundef nonnull align 1 dereferenceable(32) %55, i64 32, i1 false)
  %56 = getelementptr inbounds [16 x [33 x i8]], ptr %28, i64 0, i64 %47
  %57 = getelementptr inbounds [16 x [33 x i8]], ptr %28, i64 0, i64 %50
  tail call void @llvm.memcpy.p0.p0.i64(ptr noundef nonnull align 1 dereferenceable(32) %56, ptr noundef nonnull align 1 dereferenceable(32) %57, i64 32, i1 false)
  %58 = getelementptr inbounds [16 x [33 x i8]], ptr %29, i64 0, i64 %47
  %59 = getelementptr inbounds [16 x [33 x i8]], ptr %29, i64 0, i64 %50
  tail call void @llvm.memcpy.p0.p0.i64(ptr noundef nonnull align 1 dereferenceable(32) %58, ptr noundef nonnull align 1 dereferenceable(32) %59, i64 32, i1 false)
  %60 = load i16, ptr %24, align 2, !tbaa !51
  %61 = sext i16 %60 to i32
  %62 = shl nuw i32 1, %49
  %63 = and i32 %62, %61
  %.not51 = icmp eq i32 %63, 0
  br i1 %.not51, label %68, label %64

64:                                               ; preds = %42
  %65 = shl nuw i32 1, %46
  %66 = trunc i32 %65 to i16
  %67 = or i16 %60, %66
  store i16 %67, ptr %24, align 2, !tbaa !51
  br label %68

68:                                               ; preds = %64, %42
  %69 = phi i16 [ %67, %64 ], [ %60, %42 ]
  %70 = add nuw nsw i32 %.154, 1
  %exitcond56.not = icmp eq i32 %70, %22
  br i1 %exitcond56.not, label %..critedge.loopexit_crit_edge, label %40, !llvm.loop !75

..critedge.loopexit_crit_edge:                    ; preds = %68
  %.pre57.pre = load i8, ptr %16, align 4, !tbaa !32
  br label %.critedge.loopexit, !llvm.loop !75

.critedge.loopexit:                               ; preds = %40, %..critedge.loopexit_crit_edge
  %.pre57 = phi i8 [ %.pre57.pre, %..critedge.loopexit_crit_edge ], [ %.pre57.pre59, %40 ]
  %71 = phi i16 [ %69, %..critedge.loopexit_crit_edge ], [ 0, %40 ]
  %.pre = zext nneg i8 %.pre57 to i32
  br label %.critedge

.critedge:                                        ; preds = %.critedge.loopexit, %.preheader
  %.pre-phi = phi i32 [ %.pre, %.critedge.loopexit ], [ %18, %.preheader ]
  %72 = phi i16 [ %71, %.critedge.loopexit ], [ %.pre58, %.preheader ]
  %73 = shl nuw i32 1, %.pre-phi
  %74 = trunc i32 %73 to i16
  %75 = xor i16 %74, -1
  %76 = and i16 %72, %75
  store i16 %76, ptr %24, align 2, !tbaa !51
  br label %77

77:                                               ; preds = %1, %.critedge
  ret void
}